; Function Attrs: mustprogress uwtable
define internal void @_ZN2cv12cpu_baselineL8cvt16u8sEPKhmS2_mPhmNS_5Size_IiEEPv(ptr nocapture noundef readonly %0, i64 noundef %1, ptr nocapture readnone %2, i64 %3, ptr nocapture noundef writeonly %4, i64 noundef %5, i64 %6, ptr nocapture readnone %7) #0 personality ptr @__gxx_personality_v0 {
  %9 = alloca %"class.cv::utils::trace::details::Region", align 8
  call void @_ZN2cv5utils5trace7details6RegionC1ERKNS3_21LocationStaticStorageE(ptr noundef nonnull align 8 dereferenceable(12) %9, ptr noundef nonnull align 8 dereferenceable(32) @_ZZN2cv12cpu_baselineL8cvt16u8sEPKhmS2_mPhmNS_5Size_IiEEPvE25__cv_trace_location_fn206)
  %.sroa.2.0.extract.shift.i = lshr i64 %6, 32
  %.sroa.2.0.extract.trunc.i = trunc nuw i64 %.sroa.2.0.extract.shift.i to i32
  %10 = lshr i64 %1, 1
  %11 = icmp sgt i32 %.sroa.2.0.extract.trunc.i, 0
  %.sroa.0.0.extract.trunc.i = trunc i64 %6 to i32
  %12 = icmp sgt i32 %.sroa.0.0.extract.trunc.i, 0
  %or.cond.i = and i1 %12, %11
  br i1 %or.cond.i, label %.preheader.us.preheader.i, label %_ZN2cv12cpu_baselineL4cvt_ItaNS_12hal_baseline5v_regItLi8EEEEEvPKT_mPT0_mNS_5Size_IiEE.exit

.preheader.us.preheader.i:                        ; preds = %8
  %wide.trip.count.i = and i64 %6, 2147483647
  br label %.preheader.us.i

.preheader.us.i:                                  ; preds = %._crit_edge.us.i, %.preheader.us.preheader.i
  %.01319.us.i = phi i32 [ %19, %._crit_edge.us.i ], [ 0, %.preheader.us.preheader.i ]
  %.01418.us.i = phi ptr [ %21, %._crit_edge.us.i ], [ %4, %.preheader.us.preheader.i ]
  %.01517.us.i = phi ptr [ %20, %._crit_edge.us.i ], [ %0, %.preheader.us.preheader.i ]
  br label %13

13:                                               ; preds = %13, %.preheader.us.i
  %indvars.iv.i = phi i64 [ 0, %.preheader.us.i ], [ %indvars.iv.next.i, %13 ]
  %14 = getelementptr inbounds i16, ptr %.01517.us.i, i64 %indvars.iv.i
  %15 = load i16, ptr %14, align 2
  %16 = call i16 @llvm.umin.i16(i16 %15, i16 127)
  %17 = trunc nuw nsw i16 %16 to i8
  %18 = getelementptr inbounds i8, ptr %.01418.us.i, i64 %indvars.iv.i
  store i8 %17, ptr %18, align 1
  %indvars.iv.next.i = add nuw nsw i64 %indvars.iv.i, 1
  %exitcond.not.i = icmp eq i64 %indvars.iv.next.i, %wide.trip.count.i
  br i1 %exitcond.not.i, label %._crit_edge.us.i, label %13, !llvm.loop !26

._crit_edge.us.i:                                 ; preds = %13
  %19 = add nuw nsw i32 %.01319.us.i, 1
  %20 = getelementptr inbounds i16, ptr %.01517.us.i, i64 %10
  %21 = getelementptr inbounds i8, ptr %.01418.us.i, i64 %5
  %exitcond23.not.i = icmp eq i32 %19, %.sroa.2.0.extract.trunc.i
  br i1 %exitcond23.not.i, label %_ZN2cv12cpu_baselineL4cvt_ItaNS_12hal_baseline5v_regItLi8EEEEEvPKT_mPT0_mNS_5Size_IiEE.exit, label %.preheader.us.i, !llvm.loop !27

_ZN2cv12cpu_baselineL4cvt_ItaNS_12hal_baseline5v_regItLi8EEEEEvPKT_mPT0_mNS_5Size_IiEE.exit: ; preds = %._crit_edge.us.i, %8
  %22 = getelementptr inbounds i8, ptr %9, i64 8
  %23 = load i32, ptr %22, align 8
  %.not.i = icmp eq i32 %23, 0
  br i1 %.not.i, label %_ZN2cv5utils5trace7details6RegionD2Ev.exit, label %24

24:                                               ; preds = %_ZN2cv12cpu_baselineL4cvt_ItaNS_12hal_baseline5v_regItLi8EEEEEvPKT_mPT0_mNS_5Size_IiEE.exit
  invoke void @_ZN2cv5utils5trace7details6Region7destroyEv(ptr noundef nonnull align 8 dereferenceable(12) %9)
          to label %_ZN2cv5utils5trace7details6RegionD2Ev.exit unwind label %25

25:                                               ; preds = %24
  %26 = landingpad { ptr, i32 }
          catch ptr null
  %27 = extractvalue { ptr, i32 } %26, 0
  call void @__clang_call_terminate(ptr %27) #14
  unreachable

_ZN2cv5utils5trace7details6RegionD2Ev.exit:       ; preds = %_ZN2cv12cpu_baselineL4cvt_ItaNS_12hal_baseline5v_regItLi8EEEEEvPKT_mPT0_mNS_5Size_IiEE.exit, %24
  ret void
}